target datalayout = "e-m:e-p270:32:32-p271:32:32-p272:64:64-i64:64-i128:128-f80:128-n8:16:32:64-S128"
target triple = "x86_64-pc-linux-gnu"

%struct.afs_request_key = type { i32, i32, i32, i32, i16 }

; Function Attrs: nounwind null_pointer_is_valid sspstrong uwtable
define internal i32 @afs_hash(ptr noundef %0) #3 {
  %2 = alloca ptr, align 8
  %3 = alloca ptr, align 8
  %4 = alloca i32, align 4
  store ptr %0, ptr %2, align 8
  call void @llvm.lifetime.start.p0(i64 8, ptr %3) #9
  %5 = load ptr, ptr %2, align 8
  store ptr %5, ptr %3, align 8
  call void @llvm.lifetime.start.p0(i64 4, ptr %4) #9
  %6 = load ptr, ptr %3, align 8
  %7 = getelementptr inbounds nuw %struct.afs_request_key, ptr %6, i32 0, i32 0
  %8 = load i32, ptr %7, align 4
  %9 = load ptr, ptr %3, align 8
  %10 = getelementptr inbounds nuw %struct.afs_request_key, ptr %9, i32 0, i32 1
  %11 = load i32, ptr %10, align 4
  %12 = add i32 %8, %11
  %13 = load ptr, ptr %3, align 8
  %14 = getelementptr inbounds nuw %struct.afs_request_key, ptr %13, i32 0, i32 2
  %15 = load i32, ptr %14, align 4
  %16 = add i32 %12, %15
  %17 = load ptr, ptr %3, align 8
  %18 = getelementptr inbounds nuw %struct.afs_request_key, ptr %17, i32 0, i32 3
  %19 = load i32, ptr %18, align 4
  %20 = add i32 %16, %19
  store i32 %20, ptr %4, align 4
  %21 = load i32, ptr %4, align 4
  call void @llvm.lifetime.end.p0(i64 4, ptr %4) #9
  call void @llvm.lifetime.end.p0(i64 8, ptr %3) #9
  ret i32 %21
}